; Function Attrs: nounwind uwtable
define ptr @l_Lean_Loop_forIn_loop___at_Lean_Elab_PartialFixpoint_isOptionFixpoint___spec__3(ptr noundef %0) local_unnamed_addr #0 {
  %2 = load ptr, ptr @l_Lean_Loop_forIn_loop___at_Lean_Elab_PartialFixpoint_isOptionFixpoint___spec__3___closed__2, align 8, !tbaa !9
  %3 = tail call zeroext i8 @l_Lean_Expr_isAppOfArity(ptr noundef %0, ptr noundef %2, ptr noundef nonnull inttoptr (i64 7 to ptr)) #6
  %4 = icmp eq i8 %3, 0
  br i1 %4, label %._crit_edge, label %.lr.ph

._crit_edge:                                      ; preds = %lean_dec.exit22, %1
  %.017.lcssa = phi ptr [ %0, %1 ], [ %33, %lean_dec.exit22 ]
  tail call void @lean_inc_heartbeat() #6
  %5 = tail call noalias ptr @mi_malloc_small(i64 noundef 16) #6
  %6 = icmp eq ptr %5, null
  br i1 %6, label %7, label %lean_alloc_ctor.exit

7:                                                ; preds = %._crit_edge
  tail call void @lean_internal_panic_out_of_memory() #7
  unreachable

lean_alloc_ctor.exit:                             ; preds = %._crit_edge
  %8 = getelementptr inbounds nuw i8, ptr %5, i64 4
  store i32 1, ptr %5, align 4, !tbaa !4
  store i32 16842768, ptr %8, align 4
  %9 = getelementptr inbounds nuw i8, ptr %5, i64 8
  store ptr %.017.lcssa, ptr %9, align 8, !tbaa !9
  br label %46

.lr.ph:                                           ; preds = %1, %lean_dec.exit22
  %.01737 = phi ptr [ %33, %lean_dec.exit22 ], [ %0, %1 ]
  %10 = tail call ptr @l_Lean_Expr_appArg_x21(ptr noundef %.01737) #6
  %11 = ptrtoint ptr %.01737 to i64
  %12 = and i64 %11, 1
  %.not = icmp eq i64 %12, 0
  br i1 %.not, label %13, label %lean_dec.exit23

13:                                               ; preds = %.lr.ph
  %14 = load i32, ptr %.01737, align 4, !tbaa !4
  %15 = icmp sgt i32 %14, 1
  br i1 %15, label %16, label %18, !prof !14

16:                                               ; preds = %13
  %17 = add nsw i32 %14, -1
  store i32 %17, ptr %.01737, align 4, !tbaa !4
  br label %lean_dec.exit23

18:                                               ; preds = %13
  %.not.i = icmp eq i32 %14, 0
  br i1 %.not.i, label %lean_dec.exit23, label %19

19:                                               ; preds = %18
  tail call void @lean_dec_ref_cold(ptr noundef nonnull %.01737) #6
  br label %lean_dec.exit23

lean_dec.exit23:                                  ; preds = %19, %18, %16, %.lr.ph
  %20 = tail call zeroext i8 @l_Lean_Expr_isLambda(ptr noundef %10) #6
  %21 = icmp eq i8 %20, 0
  br i1 %21, label %22, label %32

22:                                               ; preds = %lean_dec.exit23
  %23 = ptrtoint ptr %10 to i64
  %24 = and i64 %23, 1
  %.not35 = icmp eq i64 %24, 0
  br i1 %.not35, label %25, label %46

25:                                               ; preds = %22
  %26 = load i32, ptr %10, align 4, !tbaa !4
  %27 = icmp sgt i32 %26, 1
  br i1 %27, label %28, label %30, !prof !14

28:                                               ; preds = %25
  %29 = add nsw i32 %26, -1
  store i32 %29, ptr %10, align 4, !tbaa !4
  br label %46

30:                                               ; preds = %25
  %.not.i24 = icmp eq i32 %26, 0
  br i1 %.not.i24, label %46, label %31

31:                                               ; preds = %30
  tail call void @lean_dec_ref_cold(ptr noundef nonnull %10) #6
  br label %46

32:                                               ; preds = %lean_dec.exit23
  %33 = tail call ptr @l_Lean_Expr_bindingBody_x21(ptr noundef %10) #6
  %34 = ptrtoint ptr %10 to i64
  %35 = and i64 %34, 1
  %.not34 = icmp eq i64 %35, 0
  br i1 %.not34, label %36, label %lean_dec.exit22

36:                                               ; preds = %32
  %37 = load i32, ptr %10, align 4, !tbaa !4
  %38 = icmp sgt i32 %37, 1
  br i1 %38, label %39, label %41, !prof !14

39:                                               ; preds = %36
  %40 = add nsw i32 %37, -1
  store i32 %40, ptr %10, align 4, !tbaa !4
  br label %lean_dec.exit22

41:                                               ; preds = %36
  %.not.i26 = icmp eq i32 %37, 0
  br i1 %.not.i26, label %lean_dec.exit22, label %42

42:                                               ; preds = %41
  tail call void @lean_dec_ref_cold(ptr noundef nonnull %10) #6
  br label %lean_dec.exit22

lean_dec.exit22:                                  ; preds = %32, %39, %41, %42
  %43 = load ptr, ptr @l_Lean_Loop_forIn_loop___at_Lean_Elab_PartialFixpoint_isOptionFixpoint___spec__3___closed__2, align 8, !tbaa !9
  %44 = tail call zeroext i8 @l_Lean_Expr_isAppOfArity(ptr noundef %33, ptr noundef %43, ptr noundef nonnull inttoptr (i64 7 to ptr)) #6
  %45 = icmp eq i8 %44, 0
  br i1 %45, label %._crit_edge, label %.lr.ph

46:                                               ; preds = %lean_alloc_ctor.exit, %31, %30, %28, %22
  %.1.ph = phi ptr [ inttoptr (i64 1 to ptr), %22 ], [ inttoptr (i64 1 to ptr), %28 ], [ inttoptr (i64 1 to ptr), %30 ], [ inttoptr (i64 1 to ptr), %31 ], [ %5, %lean_alloc_ctor.exit ]
  ret ptr %.1.ph
}